; ModuleID = '17/1366.c'
source_filename = "17/1366.c"
target datalayout = "e-m:e-p270:32:32-p271:32:32-p272:64:64-i64:64-f80:128-n8:16:32:64-S128"
target triple = "x86_64-pc-linux-gnu"

@.str = private unnamed_addr constant [2 x i8] c" \00", align 1
@.str.1 = private unnamed_addr constant [2 x i8] c"$\00", align 1
@.str.2 = private unnamed_addr constant [2 x i8] c"?\00", align 1
@.str.3 = private unnamed_addr constant [2 x i8] c"\0A\00", align 1

; Function Attrs: noinline nounwind uwtable
define dso_local i32 @main() #0 {
  %1 = alloca i32, align 4
  %2 = alloca [101 x i8], align 16
  %3 = alloca i32, align 4
  %4 = alloca [101 x i32], align 16
  %5 = alloca i32, align 4
  %6 = alloca i32, align 4
  store i32 0, i32* %1, align 4
  br label %7

7:                                                ; preds = %107, %0
  %8 = getelementptr inbounds [101 x i8], [101 x i8]* %2, i64 0, i64 0
  %9 = call i32 (i8*, ...) bitcast (i32 (...)* @gets to i32 (i8*, ...)*)(i8* %8)
  %10 = icmp ne i32 %9, 0
  br i1 %10, label %11, label %109

11:                                               ; preds = %7
  %12 = getelementptr inbounds [101 x i8], [101 x i8]* %2, i64 0, i64 0
  %13 = call i64 @strlen(i8* %12) #3
  %14 = trunc i64 %13 to i32
  store i32 %14, i32* %3, align 4
  store i32 0, i32* %5, align 4
  br label %15

15:                                               ; preds = %74, %11
  %16 = load i32, i32* %5, align 4
  %17 = load i32, i32* %3, align 4
  %18 = icmp slt i32 %16, %17
  br i1 %18, label %19, label %77

19:                                               ; preds = %15
  %20 = load i32, i32* %5, align 4
  %21 = sext i32 %20 to i64
  %22 = getelementptr inbounds [101 x i8], [101 x i8]* %2, i64 0, i64 %21
  %23 = load i8, i8* %22, align 1
  %24 = sext i8 %23 to i32
  %25 = icmp eq i32 %24, 40
  br i1 %25, label %26, label %30

26:                                               ; preds = %19
  %27 = load i32, i32* %5, align 4
  %28 = sext i32 %27 to i64
  %29 = getelementptr inbounds [101 x i32], [101 x i32]* %4, i64 0, i64 %28
  store i32 1, i32* %29, align 4
  br label %73

30:                                               ; preds = %19
  %31 = load i32, i32* %5, align 4
  %32 = sext i32 %31 to i64
  %33 = getelementptr inbounds [101 x i8], [101 x i8]* %2, i64 0, i64 %32
  %34 = load i8, i8* %33, align 1
  %35 = sext i8 %34 to i32
  %36 = icmp eq i32 %35, 41
  br i1 %36, label %37, label %68

37:                                               ; preds = %30
  %38 = load i32, i32* %5, align 4
  %39 = sub nsw i32 %38, 1
  store i32 %39, i32* %6, align 4
  br label %40

40:                                               ; preds = %57, %37
  %41 = load i32, i32* %6, align 4
  %42 = icmp sge i32 %41, 0
  br i1 %42, label %43, label %60

43:                                               ; preds = %40
  %44 = load i32, i32* %6, align 4
  %45 = sext i32 %44 to i64
  %46 = getelementptr inbounds [101 x i32], [101 x i32]* %4, i64 0, i64 %45
  %47 = load i32, i32* %46, align 4
  %48 = icmp eq i32 %47, 1
  br i1 %48, label %49, label %56

49:                                               ; preds = %43
  %50 = load i32, i32* %6, align 4
  %51 = sext i32 %50 to i64
  %52 = getelementptr inbounds [101 x i32], [101 x i32]* %4, i64 0, i64 %51
  store i32 0, i32* %52, align 4
  %53 = load i32, i32* %5, align 4
  %54 = sext i32 %53 to i64
  %55 = getelementptr inbounds [101 x i32], [101 x i32]* %4, i64 0, i64 %54
  store i32 0, i32* %55, align 4
  br label %60

56:                                               ; preds = %43
  br label %57

57:                                               ; preds = %56
  %58 = load i32, i32* %6, align 4
  %59 = add nsw i32 %58, -1
  store i32 %59, i32* %6, align 4
  br label %40

60:                                               ; preds = %49, %40
  %61 = load i32, i32* %6, align 4
  %62 = icmp slt i32 %61, 0
  br i1 %62, label %63, label %67

63:                                               ; preds = %60
  %64 = load i32, i32* %5, align 4
  %65 = sext i32 %64 to i64
  %66 = getelementptr inbounds [101 x i32], [101 x i32]* %4, i64 0, i64 %65
  store i32 2, i32* %66, align 4
  br label %67

67:                                               ; preds = %63, %60
  br label %72

68:                                               ; preds = %30
  %69 = load i32, i32* %5, align 4
  %70 = sext i32 %69 to i64
  %71 = getelementptr inbounds [101 x i32], [101 x i32]* %4, i64 0, i64 %70
  store i32 0, i32* %71, align 4
  br label %72

72:                                               ; preds = %68, %67
  br label %73

73:                                               ; preds = %72, %26
  br label %74

74:                                               ; preds = %73
  %75 = load i32, i32* %5, align 4
  %76 = add nsw i32 %75, 1
  store i32 %76, i32* %5, align 4
  br label %15

77:                                               ; preds = %15
  %78 = getelementptr inbounds [101 x i8], [101 x i8]* %2, i64 0, i64 0
  %79 = call i32 @puts(i8* %78)
  store i32 0, i32* %5, align 4
  br label %80

80:                                               ; preds = %104, %77
  %81 = load i32, i32* %5, align 4
  %82 = load i32, i32* %3, align 4
  %83 = icmp slt i32 %81, %82
  br i1 %83, label %84, label %107

84:                                               ; preds = %80
  %85 = load i32, i32* %5, align 4
  %86 = sext i32 %85 to i64
  %87 = getelementptr inbounds [101 x i32], [101 x i32]* %4, i64 0, i64 %86
  %88 = load i32, i32* %87, align 4
  %89 = icmp eq i32 %88, 0
  br i1 %89, label %90, label %92

90:                                               ; preds = %84
  %91 = call i32 (i8*, ...) @printf(i8* getelementptr inbounds ([2 x i8], [2 x i8]* @.str, i64 0, i64 0))
  br label %103

92:                                               ; preds = %84
  %93 = load i32, i32* %5, align 4
  %94 = sext i32 %93 to i64
  %95 = getelementptr inbounds [101 x i32], [101 x i32]* %4, i64 0, i64 %94
  %96 = load i32, i32* %95, align 4
  %97 = icmp eq i32 %96, 1
  br i1 %97, label %98, label %100

98:                                               ; preds = %92
  %99 = call i32 (i8*, ...) @printf(i8* getelementptr inbounds ([2 x i8], [2 x i8]* @.str.1, i64 0, i64 0))
  br label %102

100:                                              ; preds = %92
  %101 = call i32 (i8*, ...) @printf(i8* getelementptr inbounds ([2 x i8], [2 x i8]* @.str.2, i64 0, i64 0))
  br label %102

102:                                              ; preds = %100, %98
  br label %103

103:                                              ; preds = %102, %90
  br label %104

104:                                              ; preds = %103
  %105 = load i32, i32* %5, align 4
  %106 = add nsw i32 %105, 1
  store i32 %106, i32* %5, align 4
  br label %80

107:                                              ; preds = %80
  %108 = call i32 (i8*, ...) @printf(i8* getelementptr inbounds ([2 x i8], [2 x i8]* @.str.3, i64 0, i64 0))
  br label %7

109:                                              ; preds = %7
  ret i32 0
}

declare dso_local i32 @gets(...) #1

; Function Attrs: nounwind readonly
declare dso_local i64 @strlen(i8*) #2

declare dso_local i32 @puts(i8*) #1

declare dso_local i32 @printf(i8*, ...) #1


!llvm.module.flags = !{!0}
!llvm.ident = !{!1}

!0 = !{i32 1, !"wchar_size", i32 4}
!1 = !{!"clang version 10.0.0-4ubuntu1 "}
